Certificate:
    Data:
        Version: 3 (0x2)
        Serial Number: 2 (0x2)
        Signature Algorithm: md5WithRSAEncryption
        Issuer: C=US, ST=Illinois, L=Aurora, O=Netgear, CN=Netgear Root CA 1
        Validity
            Not Before: Apr 13 19:12:57 2011 GMT
            Not After : Apr  8 19:12:57 2031 GMT
        Subject: C=US, ST=Illinois, L=Aurora, O=Netgear, OU=Manufacturer A, CN=Netgear Intermediate CA 1
        Subject Public Key Info:
            Public Key Algorithm: rsaEncryption
            RSA Public Key: (2048 bit)
                Modulus (2048 bit):
                    00:c3:5b:83:2a:82:00:71:1a:e6:18:06:f9:65:6f:
                    ba:df:fb:0f:12:1b:13:71:e1:60:8b:10:6d:fe:c1:
                    17:71:6f:89:51:c9:30:d6:d3:b8:a6:7d:f7:b1:15:
                    44:b6:1b:dc:2d:31:8a:41:0d:f4:54:23:2d:7f:12:
                    9f:85:73:3b:c8:9c:3e:09:ae:b4:44:6c:d0:af:c1:
                    8d:8f:cc:ea:1d:2e:57:38:59:91:d5:20:22:8f:d0:
                    f2:77:d6:64:28:92:5b:8e:88:f4:c9:ee:bd:cc:45:
                    70:39:b7:6c:0d:47:c2:2a:a0:7f:e0:bc:85:35:6d:
                    46:c2:bd:74:dc:1a:8e:ce:34:e7:2a:32:b8:7a:05:
                    63:55:7e:d0:b0:98:a8:19:7f:59:d1:4a:2f:23:7d:
                    d1:99:b3:df:92:fe:fc:45:8a:a1:2e:33:f8:1c:63:
                    bb:50:e5:a6:79:86:e0:58:5e:f4:4e:a8:62:40:41:
                    37:1b:d9:a2:ec:90:7a:73:f5:2a:b7:90:7d:e1:b8:
                    f3:05:60:a3:0c:c4:fb:aa:46:a6:85:f0:d5:6a:36:
                    b1:40:e0:46:13:67:b4:dc:d3:63:c0:ff:8c:13:ce:
                    f2:bd:de:24:5c:ff:34:b4:7e:1c:b1:59:2f:71:5e:
                    f4:f0:fb:9e:77:bb:91:d0:6c:94:ef:43:05:05:d4:
                    f5:db
                Exponent: 65537 (0x10001)
        X509v3 extensions:
            X509v3 Subject Key Identifier: 
                B9:A7:54:00:BA:46:F8:6F:6D:CE:97:DE:38:21:0E:2B:A2:D5:73:74
            X509v3 Authority Key Identifier: 
                keyid:3A:5D:87:47:EC:AB:CA:2C:E9:61:04:21:5C:32:26:F1:B9:10:A5:97
                DirName:/C=US/ST=Illinois/L=Aurora/O=Netgear/CN=Netgear Root CA 1
                serial:87:BF:2E:ED:C2:D0:2B:8D

            X509v3 Basic Constraints: 
                CA:TRUE
    Signature Algorithm: md5WithRSAEncryption
        46:00:45:c4:e8:7d:32:90:53:05:ed:45:61:82:3a:6d:0c:c8:
        31:e1:54:bd:80:60:bd:5f:3b:9a:ed:a8:51:53:e1:38:e8:ab:
        ee:ae:ec:2f:35:fc:73:49:6b:c1:43:d2:55:85:d3:ee:09:4d:
        0c:c3:8f:78:a2:f5:cc:09:0f:e1:fb:91:90:80:d8:18:fa:72:
        0f:65:89:fb:8d:b4:4c:e5:04:ff:21:3a:85:1e:69:f5:45:2d:
        7c:fa:3f:64:7f:6d:68:ac:6a:ba:cf:a1:af:c0:b5:87:3f:19:
        57:99:54:2f:71:54:47:7c:67:98:02:3c:79:1a:0d:5c:b8:f3:
        d4:d6:22:c4:94:bc:fb:82:ee:49:c1:c0:ed:a5:cd:a3:ca:08:
        d6:1d:54:5c:e9:77:ee:9c:92:8e:58:49:a5:e2:fd:b2:1f:3f:
        52:0d:56:3e:0a:9c:c9:8e:b3:e7:eb:33:94:38:f6:f0:e6:b3:
        01:8f:86:85:cc:ee:18:0a:2f:be:d2:b4:af:66:67:9c:2c:cb:
        a2:ff:6e:65:81:3d:79:ce:cf:36:c5:32:ed:eb:5e:a9:b6:b1:
        bd:e3:97:5f:29:79:a3:0f:d1:44:4b:b8:00:42:20:43:27:aa:
        bb:7b:0b:b5:a5:b9:88:59:17:dc:96:5c:d7:48:9f:6a:4b:39:
        df:fc:b6:4d
-----BEGIN CERTIFICATE-----
MIIEIDCCAwigAwIBAgIBAjANBgkqhkiG9w0BAQQFADBfMQswCQYDVQQGEwJVUzER
MA8GA1UECBMISWxsaW5vaXMxDzANBgNVBAcTBkF1cm9yYTEQMA4GA1UEChMHTmV0
Z2VhcjEaMBgGA1UEAxMRTmV0Z2VhciBSb290IENBIDEwHhcNMTEwNDEzMTkxMjU3
WhcNMzEwNDA4MTkxMjU3WjCBgDELMAkGA1UEBhMCVVMxETAPBgNVBAgTCElsbGlu
b2lzMQ8wDQYDVQQHEwZBdXJvcmExEDAOBgNVBAoTB05ldGdlYXIxFzAVBgNVBAsT
Dk1hbnVmYWN0dXJlciBBMSIwIAYDVQQDExlOZXRnZWFyIEludGVybWVkaWF0ZSBD
QSAxMIIBIjANBgkqhkiG9w0BAQEFAAOCAQ8AMIIBCgKCAQEAw1uDKoIAcRrmGAb5
ZW+63/sPEhsTceFgixBt/sEXcW+JUckw1tO4pn33sRVEthvcLTGKQQ30VCMtfxKf
hXM7yJw+Ca60RGzQr8GNj8zqHS5XOFmR1SAij9Dyd9ZkKJJbjoj0ye69zEVwObds
DUfCKqB/4LyFNW1Gwr103BqOzjTnKjK4egVjVX7QsJioGX9Z0UovI33RmbPfkv78
RYqhLjP4HGO7UOWmeYbgWF70TqhiQEE3G9mi7JB6c/Uqt5B94bjzBWCjDMT7qkam
hfDVajaxQOBGE2e03NNjwP+ME87yvd4kXP80tH4csVkvcV708Pued7uR0GyU70MF
BdT12wIDAQABo4HEMIHBMB0GA1UdDgQWBBS5p1QAukb4b23Ol944IQ4rotVzdDCB
kQYDVR0jBIGJMIGGgBQ6XYdH7KvKLOlhBCFcMibxuRCll6FjpGEwXzELMAkGA1UE
BhMCVVMxETAPBgNVBAgTCElsbGlub2lzMQ8wDQYDVQQHEwZBdXJvcmExEDAOBgNV
BAoTB05ldGdlYXIxGjAYBgNVBAMTEU5ldGdlYXIgUm9vdCBDQSAxggkAh78u7cLQ
K40wDAYDVR0TBAUwAwEB/zANBgkqhkiG9w0BAQQFAAOCAQEARgBFxOh9MpBTBe1F
YYI6bQzIMeFUvYBgvV87mu2oUVPhOOir7q7sLzX8c0lrwUPSVYXT7glNDMOPeKL1
zAkP4fuRkIDYGPpyD2WJ+420TOUE/yE6hR5p9UUtfPo/ZH9taKxqus+hr8C1hz8Z
V5lUL3FUR3xnmAI8eRoNXLjz1NYixJS8+4LuScHA7aXNo8oI1h1UXOl37pySjlhJ
peL9sh8/Ug1WPgqcyY6z5+szlDj28OazAY+GhczuGAovvtK0r2ZnnCzLov9uZYE9
ec7PNsUy7eteqbaxveOXXyl5ow/RREu4AEIgQyequ3sLtaW5iFkX3JZc10ifaks5
3/y2TQ==
-----END CERTIFICATE-----
